(dp1
I0
(dp2
I0
(lp3
(F113.42589456015877
I1
I2
S'Yellow Dog'
p4
tp5
a(F115
I0
I1
S'Goofy'
p6
tp7
a(F115
I0
I1
g6
tp8
a(F115
I0
I1
g6
tp9
a(F115
I0
I1
g6
tp10
a(F115
I0
I1
g6
tp11
a(F115
I0
I1
g6
tp12
a(F115
I0
I1
g6
tp13
a(F115
I0
I1
g6
tp14
a(F115
I0
I1
g6
tp15
asI1
(lp16
(F113.42589456015877
I1
I2
S'Yellow Dog'
p17
tp18
a(F115
I0
I1
g6
tp19
a(F115
I0
I1
g6
tp20
a(F115
I0
I1
g6
tp21
a(F115
I0
I1
g6
tp22
a(F115
I0
I1
g6
tp23
a(F115
I0
I1
g6
tp24
a(F115
I0
I1
g6
tp25
a(F115
I0
I1
g6
tp26
a(F115
I0
I1
g6
tp27
asI2
(lp28
(F113.42589456015877
I1
I2
S'Yellow Dog'
p29
tp30
a(F115
I0
I1
g6
tp31
a(F115
I0
I1
g6
tp32
a(F115
I0
I1
g6
tp33
a(F115
I0
I1
g6
tp34
a(F115
I0
I1
g6
tp35
a(F115
I0
I1
g6
tp36
a(F115
I0
I1
g6
tp37
a(F115
I0
I1
g6
tp38
a(F115
I0
I1
g6
tp39
assI1
(dp40
I0
(lp41
(F115
I0
I1
g6
tp42
a(F115
I0
I1
g6
tp43
a(F115
I0
I1
g6
tp44
a(F115
I0
I1
g6
tp45
a(F115
I0
I1
g6
tp46
a(F115
I0
I1
g6
tp47
a(F115
I0
I1
g6
tp48
a(F115
I0
I1
g6
tp49
a(F115
I0
I1
g6
tp50
a(F115
I0
I1
g6
tp51
asI1
(lp52
(F115
I0
I1
g6
tp53
a(F115
I0
I1
g6
tp54
a(F115
I0
I1
g6
tp55
a(F115
I0
I1
g6
tp56
a(F115
I0
I1
g6
tp57
a(F115
I0
I1
g6
tp58
a(F115
I0
I1
g6
tp59
a(F115
I0
I1
g6
tp60
a(F115
I0
I1
g6
tp61
a(F115
I0
I1
g6
tp62
asI2
(lp63
(F115
I0
I1
g6
tp64
a(F115
I0
I1
g6
tp65
a(F115
I0
I1
g6
tp66
a(F115
I0
I1
g6
tp67
a(F115
I0
I1
g6
tp68
a(F115
I0
I1
g6
tp69
a(F115
I0
I1
g6
tp70
a(F115
I0
I1
g6
tp71
a(F115
I0
I1
g6
tp72
a(F115
I0
I1
g6
tp73
assI65
(dp74
I0
(lp75
(F280
I0
I1
g6
tp76
a(F280
I0
I1
g6
tp77
a(F280
I0
I1
g6
tp78
a(F280
I0
I1
g6
tp79
a(F280
I0
I1
g6
tp80
a(F280
I0
I1
g6
tp81
a(F280
I0
I1
g6
tp82
a(F280
I0
I1
g6
tp83
a(F280
I0
I1
g6
tp84
a(F280
I0
I1
g6
tp85
asI1
(lp86
(F280
I0
I1
g6
tp87
a(F280
I0
I1
g6
tp88
a(F280
I0
I1
g6
tp89
a(F280
I0
I1
g6
tp90
a(F280
I0
I1
g6
tp91
a(F280
I0
I1
g6
tp92
a(F280
I0
I1
g6
tp93
a(F280
I0
I1
g6
tp94
a(F280
I0
I1
g6
tp95
a(F280
I0
I1
g6
tp96
asI2
(lp97
(F280
I0
I1
g6
tp98
a(F280
I0
I1
g6
tp99
a(F280
I0
I1
g6
tp100
a(F280
I0
I1
g6
tp101
a(F280
I0
I1
g6
tp102
a(F280
I0
I1
g6
tp103
a(F280
I0
I1
g6
tp104
a(F280
I0
I1
g6
tp105
a(F280
I0
I1
g6
tp106
a(F280
I0
I1
g6
tp107
assI40
(dp108
I0
(lp109
(F305
I0
I1
g6
tp110
a(F305
I0
I1
g6
tp111
a(F305
I0
I1
g6
tp112
a(F305
I0
I1
g6
tp113
a(F305
I0
I1
g6
tp114
a(F305
I0
I1
g6
tp115
a(F305
I0
I1
g6
tp116
a(F305
I0
I1
g6
tp117
a(F305
I0
I1
g6
tp118
a(F305
I0
I1
g6
tp119
asI1
(lp120
(F305
I0
I1
g6
tp121
a(F305
I0
I1
g6
tp122
a(F305
I0
I1
g6
tp123
a(F305
I0
I1
g6
tp124
a(F305
I0
I1
g6
tp125
a(F305
I0
I1
g6
tp126
a(F305
I0
I1
g6
tp127
a(F305
I0
I1
g6
tp128
a(F305
I0
I1
g6
tp129
a(F305
I0
I1
g6
tp130
asI2
(lp131
(F305
I0
I1
g6
tp132
a(F305
I0
I1
g6
tp133
a(F305
I0
I1
g6
tp134
a(F305
I0
I1
g6
tp135
a(F305
I0
I1
g6
tp136
a(F305
I0
I1
g6
tp137
a(F305
I0
I1
g6
tp138
a(F305
I0
I1
g6
tp139
a(F305
I0
I1
g6
tp140
a(F305
I0
I1
g6
tp141
assI41
(dp142
I0
(lp143
(F305
I0
I1
g6
tp144
a(F305
I0
I1
g6
tp145
a(F305
I0
I1
g6
tp146
a(F305
I0
I1
g6
tp147
a(F305
I0
I1
g6
tp148
a(F305
I0
I1
g6
tp149
a(F305
I0
I1
g6
tp150
a(F305
I0
I1
g6
tp151
a(F305
I0
I1
g6
tp152
a(F305
I0
I1
g6
tp153
asI1
(lp154
(F305
I0
I1
g6
tp155
a(F305
I0
I1
g6
tp156
a(F305
I0
I1
g6
tp157
a(F305
I0
I1
g6
tp158
a(F305
I0
I1
g6
tp159
a(F305
I0
I1
g6
tp160
a(F305
I0
I1
g6
tp161
a(F305
I0
I1
g6
tp162
a(F305
I0
I1
g6
tp163
a(F305
I0
I1
g6
tp164
asI2
(lp165
(F305
I0
I1
g6
tp166
a(F305
I0
I1
g6
tp167
a(F305
I0
I1
g6
tp168
a(F305
I0
I1
g6
tp169
a(F305
I0
I1
g6
tp170
a(F305
I0
I1
g6
tp171
a(F305
I0
I1
g6
tp172
a(F305
I0
I1
g6
tp173
a(F305
I0
I1
g6
tp174
a(F305
I0
I1
g6
tp175
assI64
(dp176
I0
(lp177
(F280
I0
I1
g6
tp178
a(F280
I0
I1
g6
tp179
a(F280
I0
I1
g6
tp180
a(F280
I0
I1
g6
tp181
a(F280
I0
I1
g6
tp182
a(F280
I0
I1
g6
tp183
a(F280
I0
I1
g6
tp184
a(F280
I0
I1
g6
tp185
a(F280
I0
I1
g6
tp186
a(F280
I0
I1
g6
tp187
asI1
(lp188
(F280
I0
I1
g6
tp189
a(F280
I0
I1
g6
tp190
a(F280
I0
I1
g6
tp191
a(F280
I0
I1
g6
tp192
a(F280
I0
I1
g6
tp193
a(F280
I0
I1
g6
tp194
a(F280
I0
I1
g6
tp195
a(F280
I0
I1
g6
tp196
a(F280
I0
I1
g6
tp197
a(F280
I0
I1
g6
tp198
asI2
(lp199
(F280
I0
I1
g6
tp200
a(F280
I0
I1
g6
tp201
a(F280
I0
I1
g6
tp202
a(F280
I0
I1
g6
tp203
a(F280
I0
I1
g6
tp204
a(F280
I0
I1
g6
tp205
a(F280
I0
I1
g6
tp206
a(F280
I0
I1
g6
tp207
a(F280
I0
I1
g6
tp208
a(F280
I0
I1
g6
tp209
assI20
(dp210
I0
(lp211
(F230
I0
I1
g6
tp212
a(F230
I0
I1
g6
tp213
a(F230
I0
I1
g6
tp214
a(F230
I0
I1
g6
tp215
a(F230
I0
I1
g6
tp216
a(F230
I0
I1
g6
tp217
a(F230
I0
I1
g6
tp218
a(F230
I0
I1
g6
tp219
a(F230
I0
I1
g6
tp220
a(F230
I0
I1
g6
tp221
asI1
(lp222
(F230
I0
I1
g6
tp223
a(F230
I0
I1
g6
tp224
a(F230
I0
I1
g6
tp225
a(F230
I0
I1
g6
tp226
a(F230
I0
I1
g6
tp227
a(F230
I0
I1
g6
tp228
a(F230
I0
I1
g6
tp229
a(F230
I0
I1
g6
tp230
a(F230
I0
I1
g6
tp231
a(F230
I0
I1
g6
tp232
asI2
(lp233
(F230
I0
I1
g6
tp234
a(F230
I0
I1
g6
tp235
a(F230
I0
I1
g6
tp236
a(F230
I0
I1
g6
tp237
a(F230
I0
I1
g6
tp238
a(F230
I0
I1
g6
tp239
a(F230
I0
I1
g6
tp240
a(F230
I0
I1
g6
tp241
a(F230
I0
I1
g6
tp242
a(F230
I0
I1
g6
tp243
assI21
(dp244
I0
(lp245
(F230
I0
I1
g6
tp246
a(F230
I0
I1
g6
tp247
a(F230
I0
I1
g6
tp248
a(F230
I0
I1
g6
tp249
a(F230
I0
I1
g6
tp250
a(F230
I0
I1
g6
tp251
a(F230
I0
I1
g6
tp252
a(F230
I0
I1
g6
tp253
a(F230
I0
I1
g6
tp254
a(F230
I0
I1
g6
tp255
asI1
(lp256
(F230
I0
I1
g6
tp257
a(F230
I0
I1
g6
tp258
a(F230
I0
I1
g6
tp259
a(F230
I0
I1
g6
tp260
a(F230
I0
I1
g6
tp261
a(F230
I0
I1
g6
tp262
a(F230
I0
I1
g6
tp263
a(F230
I0
I1
g6
tp264
a(F230
I0
I1
g6
tp265
a(F230
I0
I1
g6
tp266
asI2
(lp267
(F230
I0
I1
g6
tp268
a(F230
I0
I1
g6
tp269
a(F230
I0
I1
g6
tp270
a(F230
I0
I1
g6
tp271
a(F230
I0
I1
g6
tp272
a(F230
I0
I1
g6
tp273
a(F230
I0
I1
g6
tp274
a(F230
I0
I1
g6
tp275
a(F230
I0
I1
g6
tp276
a(F230
I0
I1
g6
tp277
assI60
(dp278
I0
(lp279
(F210
I0
I1
g6
tp280
a(F210
I0
I1
g6
tp281
a(F210
I0
I1
g6
tp282
a(F210
I0
I1
g6
tp283
a(F210
I0
I1
g6
tp284
a(F210
I0
I1
g6
tp285
a(F210
I0
I1
g6
tp286
a(F210
I0
I1
g6
tp287
a(F210
I0
I1
g6
tp288
a(F210
I0
I1
g6
tp289
asI1
(lp290
(F210
I0
I1
g6
tp291
a(F210
I0
I1
g6
tp292
a(F210
I0
I1
g6
tp293
a(F210
I0
I1
g6
tp294
a(F210
I0
I1
g6
tp295
a(F210
I0
I1
g6
tp296
a(F210
I0
I1
g6
tp297
a(F210
I0
I1
g6
tp298
a(F210
I0
I1
g6
tp299
a(F210
I0
I1
g6
tp300
asI2
(lp301
(F210
I0
I1
g6
tp302
a(F210
I0
I1
g6
tp303
a(F210
I0
I1
g6
tp304
a(F210
I0
I1
g6
tp305
a(F210
I0
I1
g6
tp306
a(F210
I0
I1
g6
tp307
a(F210
I0
I1
g6
tp308
a(F210
I0
I1
g6
tp309
a(F210
I0
I1
g6
tp310
a(F210
I0
I1
g6
tp311
assI61
(dp312
I0
(lp313
(F207.72803845273521
I1
I2
S'Super Mouse'
p314
tp315
a(F210
I0
I1
g6
tp316
a(F210
I0
I1
g6
tp317
a(F210
I0
I1
g6
tp318
a(F210
I0
I1
g6
tp319
a(F210
I0
I1
g6
tp320
a(F210
I0
I1
g6
tp321
a(F210
I0
I1
g6
tp322
a(F210
I0
I1
g6
tp323
a(F210
I0
I1
g6
tp324
asI1
(lp325
(F207.72803845273521
I1
I2
S'Super Mouse'
p326
tp327
a(F210
I0
I1
g6
tp328
a(F210
I0
I1
g6
tp329
a(F210
I0
I1
g6
tp330
a(F210
I0
I1
g6
tp331
a(F210
I0
I1
g6
tp332
a(F210
I0
I1
g6
tp333
a(F210
I0
I1
g6
tp334
a(F210
I0
I1
g6
tp335
a(F210
I0
I1
g6
tp336
asI2
(lp337
(F207.72803845273521
I1
I2
S'Super Mouse'
p338
tp339
a(F210
I0
I1
g6
tp340
a(F210
I0
I1
g6
tp341
a(F210
I0
I1
g6
tp342
a(F210
I0
I1
g6
tp343
a(F210
I0
I1
g6
tp344
a(F210
I0
I1
g6
tp345
a(F210
I0
I1
g6
tp346
a(F210
I0
I1
g6
tp347
a(F210
I0
I1
g6
tp348
assI62
(dp349
I0
(lp350
(F360
I0
I1
g6
tp351
a(F360
I0
I1
g6
tp352
a(F360
I0
I1
g6
tp353
a(F360
I0
I1
g6
tp354
a(F360
I0
I1
g6
tp355
a(F360
I0
I1
g6
tp356
a(F360
I0
I1
g6
tp357
a(F360
I0
I1
g6
tp358
a(F360
I0
I1
g6
tp359
a(F360
I0
I1
g6
tp360
asI1
(lp361
(F360
I0
I1
g6
tp362
a(F360
I0
I1
g6
tp363
a(F360
I0
I1
g6
tp364
a(F360
I0
I1
g6
tp365
a(F360
I0
I1
g6
tp366
a(F360
I0
I1
g6
tp367
a(F360
I0
I1
g6
tp368
a(F360
I0
I1
g6
tp369
a(F360
I0
I1
g6
tp370
a(F360
I0
I1
g6
tp371
asI2
(lp372
(F360
I0
I1
g6
tp373
a(F360
I0
I1
g6
tp374
a(F360
I0
I1
g6
tp375
a(F360
I0
I1
g6
tp376
a(F360
I0
I1
g6
tp377
a(F360
I0
I1
g6
tp378
a(F360
I0
I1
g6
tp379
a(F360
I0
I1
g6
tp380
a(F360
I0
I1
g6
tp381
a(F360
I0
I1
g6
tp382
assI63
(dp383
I0
(lp384
(F360
I0
I1
g6
tp385
a(F360
I0
I1
g6
tp386
a(F360
I0
I1
g6
tp387
a(F360
I0
I1
g6
tp388
a(F360
I0
I1
g6
tp389
a(F360
I0
I1
g6
tp390
a(F360
I0
I1
g6
tp391
a(F360
I0
I1
g6
tp392
a(F360
I0
I1
g6
tp393
a(F360
I0
I1
g6
tp394
asI1
(lp395
(F360
I0
I1
g6
tp396
a(F360
I0
I1
g6
tp397
a(F360
I0
I1
g6
tp398
a(F360
I0
I1
g6
tp399
a(F360
I0
I1
g6
tp400
a(F360
I0
I1
g6
tp401
a(F360
I0
I1
g6
tp402
a(F360
I0
I1
g6
tp403
a(F360
I0
I1
g6
tp404
a(F360
I0
I1
g6
tp405
asI2
(lp406
(F360
I0
I1
g6
tp407
a(F360
I0
I1
g6
tp408
a(F360
I0
I1
g6
tp409
a(F360
I0
I1
g6
tp410
a(F360
I0
I1
g6
tp411
a(F360
I0
I1
g6
tp412
a(F360
I0
I1
g6
tp413
a(F360
I0
I1
g6
tp414
a(F360
I0
I1
g6
tp415
a(F360
I0
I1
g6
tp416
ass.